Certificate:
    Data:
        Version: 3 (0x2)
        Serial Number: 1 (0x1)
    Signature Algorithm: sha512WithRSAEncryption
        Issuer: C=CA, ST=Quebec, L=Montreal, O=Team One, Inc., OU=Server Dept.
        Validity
            Not Before: Oct  8 21:58:36 2018 GMT
            Not After : Oct  8 21:58:36 2019 GMT
        Subject: C=CA, ST=Quebec, O=Caf\xC3\xA9-Bistro \xC3\x89l\xC3\xA9vation, Inc., CN=127.0.0.1
        Subject Public Key Info:
            Public Key Algorithm: rsaEncryption
                Public-Key: (2048 bit)
                Modulus:
                    00:c6:09:80:8f:e4:5e:ed:0d:5e:22:9e:a3:25:91:
                    cd:e4:99:c9:14:7b:96:ed:83:48:15:97:51:da:eb:
                    ec:3a:d8:e1:54:01:5c:93:c3:d5:42:d8:0d:56:95:
                    a2:ee:88:b3:9d:08:94:c0:44:8b:8e:8c:85:5f:ef:
                    6d:3b:03:95:fa:ba:2d:47:4a:a0:d2:dd:81:1e:e8:
                    ba:d3:23:4a:57:5e:df:1d:8b:af:0b:a1:c4:62:eb:
                    44:7e:ec:2a:a4:16:73:d2:aa:a8:50:db:86:b4:47:
                    8f:bf:73:9d:a4:eb:9c:b9:dc:06:c1:9c:bc:0e:31:
                    77:17:d9:90:03:47:4b:58:62:df:eb:1d:f6:32:f0:
                    f1:26:3b:e3:8b:7b:62:a0:44:c9:57:dc:b9:c7:e0:
                    5f:33:c6:0e:bc:50:87:63:cf:53:0f:c1:c2:34:c3:
                    af:ff:19:ad:94:0a:e1:31:85:7e:14:97:99:66:d3:
                    39:5f:8b:2e:84:c2:11:f9:b6:cc:24:e8:8d:a2:c6:
                    84:fa:06:c8:61:d7:1a:42:73:4c:3c:f8:d9:3b:d8:
                    92:b7:26:74:cb:45:ab:d5:4f:f5:67:74:03:43:1e:
                    ad:1a:b7:df:7a:36:1e:ea:f7:14:a4:6a:15:f5:78:
                    9e:1d:dc:9f:d1:a6:bc:5d:b0:ea:39:f9:1e:ab:f4:
                    e2:99
                Exponent: 65537 (0x10001)
        X509v3 extensions:
            X509v3 Basic Constraints: 
                CA:FALSE
            X509v3 Subject Alternative Name: 
                DNS:localhost, DNS:*.localhost, IP Address:127.0.0.1, IP Address:132.207.89.10, IP Address:132.207.89.11
            X509v3 Subject Key Identifier: 
                D7:82:7C:66:D1:D7:B8:E8:E9:94:3B:FA:AA:7D:22:17:85:9F:1F:96
    Signature Algorithm: sha512WithRSAEncryption
         b3:7a:23:14:34:0a:94:d4:56:26:4e:c3:05:41:20:2b:7d:a2:
         6f:cc:bf:b4:d4:a2:e7:77:96:54:82:b5:22:34:3e:b8:4e:e0:
         d0:ee:85:45:6a:c0:72:a5:a1:ce:4f:f7:35:e4:0f:9b:36:1c:
         e9:4a:ee:a8:a8:fb:07:ee:48:6e:eb:35:c1:31:63:a2:1b:9e:
         55:d5:dd:5f:17:33:03:70:4b:b4:99:75:f4:80:86:6e:df:5a:
         63:95:98:d0:aa:ae:e5:2c:75:8f:87:f4:d2:b7:0c:b7:3e:95:
         db:50:d7:4d:1d:53:40:20:1c:6a:e1:97:8e:ec:7b:e8:45:92:
         c0:b4:43:70:a6:3b:13:ba:c6:9c:98:9f:ad:51:5f:f1:b3:ff:
         1b:2b:28:a7:ad:c8:e5:3f:97:f1:76:96:9e:6a:93:89:40:23:
         12:12:e0:59:1d:ca:65:dc:53:c7:f7:6d:15:d3:94:66:a2:f9:
         2b:dd:09:5e:ff:cb:91:e3:e5:6c:47:bf:1d:42:18:45:43:f0:
         63:39:2f:5e:84:ba:63:2c:f2:e3:89:b3:c3:48:00:09:fb:13:
         67:b9:ad:87:16:5c:c1:b3:eb:90:3c:dc:76:9a:13:a7:84:b1:
         19:77:79:40:2a:a0:e3:01:4d:33:11:22:2d:a5:a9:a2:9e:23:
         7f:c2:76:25
-----BEGIN CERTIFICATE-----
MIIDmDCCAoCgAwIBAgIBATANBgkqhkiG9w0BAQ0FADBhMQswCQYDVQQGEwJDQTEP
MA0GA1UECAwGUXVlYmVjMREwDwYDVQQHDAhNb250cmVhbDEXMBUGA1UECgwOVGVh
bSBPbmUsIEluYy4xFTATBgNVBAsMDFNlcnZlciBEZXB0LjAeFw0xODEwMDgyMTU4
MzZaFw0xOTEwMDgyMTU4MzZaMFsxCzAJBgNVBAYTAkNBMQ8wDQYDVQQIDAZRdWVi
ZWMxJzAlBgNVBAoMHkNhZsOpLUJpc3RybyDDiWzDqXZhdGlvbiwgSW5jLjESMBAG
A1UEAwwJMTI3LjAuMC4xMIIBIjANBgkqhkiG9w0BAQEFAAOCAQ8AMIIBCgKCAQEA
xgmAj+Re7Q1eIp6jJZHN5JnJFHuW7YNIFZdR2uvsOtjhVAFck8PVQtgNVpWi7oiz
nQiUwESLjoyFX+9tOwOV+rotR0qg0t2BHui60yNKV17fHYuvC6HEYutEfuwqpBZz
0qqoUNuGtEePv3OdpOucudwGwZy8DjF3F9mQA0dLWGLf6x32MvDxJjvji3tioETJ
V9y5x+BfM8YOvFCHY89TD8HCNMOv/xmtlArhMYV+FJeZZtM5X4suhMIR+bbMJOiN
osaE+gbIYdcaQnNMPPjZO9iStyZ0y0Wr1U/1Z3QDQx6tGrffejYe6vcUpGoV9Xie
Hdyf0aa8XbDqOfkeq/TimQIDAQABo2EwXzAJBgNVHRMEAjAAMDMGA1UdEQQsMCqC
CWxvY2FsaG9zdIILKi5sb2NhbGhvc3SHBH8AAAGHBITPWQqHBITPWQswHQYDVR0O
BBYEFNeCfGbR17jo6ZQ7+qp9IheFnx+WMA0GCSqGSIb3DQEBDQUAA4IBAQCzeiMU
NAqU1FYmTsMFQSArfaJvzL+01KLnd5ZUgrUiND64TuDQ7oVFasBypaHOT/c15A+b
NhzpSu6oqPsH7khu6zXBMWOiG55V1d1fFzMDcEu0mXX0gIZu31pjlZjQqq7lLHWP
h/TStwy3PpXbUNdNHVNAIBxq4ZeO7HvoRZLAtENwpjsTusacmJ+tUV/xs/8bKyin
rcjlP5fxdpaeapOJQCMSEuBZHcpl3FPH920V05Rmovkr3Qle/8uR4+VsR78dQhhF
Q/BjOS9ehLpjLPLjibPDSAAJ+xNnua2HFlzBs+uQPNx2mhOnhLEZd3lAKqDjAU0z
ESItpaminiN/wnYl
-----END CERTIFICATE-----
