Certificate:
    Data:
        Version: 3 (0x2)
        Serial Number: 1 (0x1)
    Signature Algorithm: sha512WithRSAEncryption
        Issuer: C=CA, ST=Quebec, L=Montreal, O=Team One, Inc., OU=Server Dept.
        Validity
            Not Before: Nov  8 18:38:05 2018 GMT
            Not After : Nov  8 18:38:05 2019 GMT
        Subject: C=CA, ST=Quebec, O=Caf\xC3\xA9-Bistro \xC3\x89l\xC3\xA9vation, Inc., CN=127.0.0.1
        Subject Public Key Info:
            Public Key Algorithm: rsaEncryption
                Public-Key: (2048 bit)
                Modulus:
                    00:da:01:8a:c4:a3:b6:48:80:bf:d7:f8:b4:46:d3:
                    f7:16:f7:39:72:ff:6b:ca:5e:e2:31:cf:44:7a:7c:
                    33:68:95:18:ad:3e:69:a4:b7:d0:14:d8:28:f9:85:
                    bc:50:18:eb:8b:ab:71:f4:cd:33:50:1f:ce:c6:11:
                    2d:5b:c7:46:9e:fe:35:f8:e6:f5:8f:c6:2b:4f:1a:
                    26:57:22:0e:e3:e8:3c:24:76:60:f8:c1:4a:ee:ff:
                    4f:ea:3a:b1:b3:a7:af:b3:33:84:3f:eb:8e:4e:b8:
                    32:61:e1:59:45:ac:e5:47:65:ac:a3:9c:43:26:c8:
                    16:09:66:ce:1e:e3:41:26:bb:75:d6:2a:08:94:3f:
                    77:98:af:fd:60:6c:57:82:1b:1a:61:13:ec:60:6c:
                    d9:68:db:b7:d5:0d:23:41:59:a3:13:82:e6:37:dd:
                    34:f0:09:47:e0:be:35:2c:8d:70:00:e8:93:d5:a5:
                    34:d6:9d:af:f3:4a:47:29:53:4a:1c:6f:dd:96:af:
                    1c:0e:d3:35:09:55:68:ca:ab:5d:22:7e:47:15:05:
                    e1:cb:c2:ad:0e:75:8c:75:bd:e6:3e:b2:cf:72:07:
                    68:cd:20:ce:22:7a:79:8c:28:72:e2:08:74:89:61:
                    8b:24:88:28:24:33:d8:41:96:f4:96:53:cf:b5:61:
                    7b:9d
                Exponent: 65537 (0x10001)
        X509v3 extensions:
            X509v3 Basic Constraints: 
                CA:FALSE
            X509v3 Subject Alternative Name: 
                DNS:localhost, DNS:*.localhost, IP Address:127.0.0.1, IP Address:132.207.89.10, IP Address:132.207.89.11
            X509v3 Subject Key Identifier: 
                88:16:B0:5E:BD:71:81:DE:52:67:D9:6B:AC:70:3A:58:75:1D:17:EC
    Signature Algorithm: sha512WithRSAEncryption
         8c:e1:e0:a9:6f:c8:b8:8b:b2:2e:f1:29:7e:48:e0:b5:8a:b9:
         07:dd:06:bb:51:de:01:0d:94:42:fe:32:d7:c5:0a:9f:d9:60:
         f9:4c:0a:06:5d:f0:b8:d9:09:17:a6:9c:96:76:46:77:d3:72:
         25:98:cb:a1:b7:79:1b:5a:86:ec:83:e0:02:47:97:54:27:b8:
         f8:4b:35:a8:86:f7:97:51:55:43:f4:4b:28:d0:00:69:75:71:
         67:98:46:d3:51:06:fe:fe:51:56:1f:a7:09:f8:34:49:db:d4:
         28:50:1d:e8:cb:8f:9f:f0:e3:df:38:8d:f7:4d:eb:fb:7b:bb:
         a9:f1:8c:d7:b6:5a:8a:7c:9a:d8:8f:30:dd:7e:23:98:22:9b:
         6e:e7:a1:6f:c7:d3:74:a2:fd:cc:ab:d9:8f:1e:2e:ef:1a:29:
         f0:ae:47:32:8d:0a:3b:b3:27:ca:d5:b1:f8:1c:8a:20:6f:aa:
         51:63:92:2e:56:a4:32:42:13:77:c8:f1:3c:9a:bd:79:59:fb:
         89:92:47:e7:56:d7:e0:0c:d6:a2:12:7c:12:13:b5:16:24:93:
         b9:58:42:73:35:26:0e:b3:d9:7d:a7:72:c5:89:96:c4:79:8f:
         9a:94:1d:e2:38:0f:cd:64:b3:fe:0c:03:e2:1e:25:ad:b5:e9:
         42:5c:50:0d
-----BEGIN CERTIFICATE-----
MIIDmDCCAoCgAwIBAgIBATANBgkqhkiG9w0BAQ0FADBhMQswCQYDVQQGEwJDQTEP
MA0GA1UECAwGUXVlYmVjMREwDwYDVQQHDAhNb250cmVhbDEXMBUGA1UECgwOVGVh
bSBPbmUsIEluYy4xFTATBgNVBAsMDFNlcnZlciBEZXB0LjAeFw0xODExMDgxODM4
MDVaFw0xOTExMDgxODM4MDVaMFsxCzAJBgNVBAYTAkNBMQ8wDQYDVQQIDAZRdWVi
ZWMxJzAlBgNVBAoMHkNhZsOpLUJpc3RybyDDiWzDqXZhdGlvbiwgSW5jLjESMBAG
A1UEAwwJMTI3LjAuMC4xMIIBIjANBgkqhkiG9w0BAQEFAAOCAQ8AMIIBCgKCAQEA
2gGKxKO2SIC/1/i0RtP3Fvc5cv9ryl7iMc9EenwzaJUYrT5ppLfQFNgo+YW8UBjr
i6tx9M0zUB/OxhEtW8dGnv41+Ob1j8YrTxomVyIO4+g8JHZg+MFK7v9P6jqxs6ev
szOEP+uOTrgyYeFZRazlR2Wso5xDJsgWCWbOHuNBJrt11ioIlD93mK/9YGxXghsa
YRPsYGzZaNu31Q0jQVmjE4LmN9008AlH4L41LI1wAOiT1aU01p2v80pHKVNKHG/d
lq8cDtM1CVVoyqtdIn5HFQXhy8KtDnWMdb3mPrLPcgdozSDOInp5jChy4gh0iWGL
JIgoJDPYQZb0llPPtWF7nQIDAQABo2EwXzAJBgNVHRMEAjAAMDMGA1UdEQQsMCqC
CWxvY2FsaG9zdIILKi5sb2NhbGhvc3SHBH8AAAGHBITPWQqHBITPWQswHQYDVR0O
BBYEFIgWsF69cYHeUmfZa6xwOlh1HRfsMA0GCSqGSIb3DQEBDQUAA4IBAQCM4eCp
b8i4i7Iu8Sl+SOC1irkH3Qa7Ud4BDZRC/jLXxQqf2WD5TAoGXfC42QkXppyWdkZ3
03IlmMuht3kbWobsg+ACR5dUJ7j4SzWohveXUVVD9Eso0ABpdXFnmEbTUQb+/lFW
H6cJ+DRJ29QoUB3oy4+f8OPfOI33Tev7e7up8YzXtlqKfJrYjzDdfiOYIptu56Fv
x9N0ov3Mq9mPHi7vGinwrkcyjQo7syfK1bH4HIogb6pRY5IuVqQyQhN3yPE8mr15
WfuJkkfnVtfgDNaiEnwSE7UWJJO5WEJzNSYOs9l9p3LFiZbEeY+alB3iOA/NZLP+
DAPiHiWttelCXFAN
-----END CERTIFICATE-----
